; ModuleID = '9/1274.c'
source_filename = "9/1274.c"
target datalayout = "e-m:e-p270:32:32-p271:32:32-p272:64:64-i64:64-f80:128-n8:16:32:64-S128"
target triple = "x86_64-pc-linux-gnu"

@.str = private unnamed_addr constant [3 x i8] c"%d\00", align 1
@.str.1 = private unnamed_addr constant [6 x i8] c"%s %d\00", align 1
@.str.2 = private unnamed_addr constant [4 x i8] c"%s\0A\00", align 1

; Function Attrs: noinline nounwind uwtable
define dso_local i32 @main(i32 %0, i8** %1) #0 {
  %3 = alloca i32, align 4
  %4 = alloca i32, align 4
  %5 = alloca i8**, align 8
  %6 = alloca i32, align 4
  %7 = alloca i32, align 4
  %8 = alloca i32, align 4
  %9 = alloca i32, align 4
  %10 = alloca i32, align 4
  %11 = alloca [100 x [10 x i8]], align 16
  %12 = alloca [100 x [10 x i8]], align 16
  %13 = alloca [10 x i8], align 1
  %14 = alloca [100 x i32], align 16
  %15 = alloca [100 x i32], align 16
  store i32 0, i32* %3, align 4
  store i32 %0, i32* %4, align 4
  store i8** %1, i8*** %5, align 8
  store i32 0, i32* %7, align 4
  store i32 0, i32* %9, align 4
  %16 = call i32 (i8*, ...) @__isoc99_scanf(i8* getelementptr inbounds ([3 x i8], [3 x i8]* @.str, i64 0, i64 0), i32* %6)
  store i32 0, i32* %8, align 4
  br label %17

17:                                               ; preds = %30, %2
  %18 = load i32, i32* %8, align 4
  %19 = load i32, i32* %6, align 4
  %20 = icmp slt i32 %18, %19
  br i1 %20, label %21, label %33

21:                                               ; preds = %17
  %22 = load i32, i32* %8, align 4
  %23 = sext i32 %22 to i64
  %24 = getelementptr inbounds [100 x [10 x i8]], [100 x [10 x i8]]* %11, i64 0, i64 %23
  %25 = getelementptr inbounds [10 x i8], [10 x i8]* %24, i64 0, i64 0
  %26 = load i32, i32* %8, align 4
  %27 = sext i32 %26 to i64
  %28 = getelementptr inbounds [100 x i32], [100 x i32]* %14, i64 0, i64 %27
  %29 = call i32 (i8*, ...) @__isoc99_scanf(i8* getelementptr inbounds ([6 x i8], [6 x i8]* @.str.1, i64 0, i64 0), i8* %25, i32* %28)
  br label %30

30:                                               ; preds = %21
  %31 = load i32, i32* %8, align 4
  %32 = add nsw i32 %31, 1
  store i32 %32, i32* %8, align 4
  br label %17

33:                                               ; preds = %17
  store i32 0, i32* %8, align 4
  br label %34

34:                                               ; preds = %65, %33
  %35 = load i32, i32* %8, align 4
  %36 = load i32, i32* %6, align 4
  %37 = icmp slt i32 %35, %36
  br i1 %37, label %38, label %68

38:                                               ; preds = %34
  %39 = load i32, i32* %8, align 4
  %40 = sext i32 %39 to i64
  %41 = getelementptr inbounds [100 x i32], [100 x i32]* %14, i64 0, i64 %40
  %42 = load i32, i32* %41, align 4
  %43 = icmp sge i32 %42, 60
  br i1 %43, label %44, label %64

44:                                               ; preds = %38
  %45 = load i32, i32* %8, align 4
  %46 = sext i32 %45 to i64
  %47 = getelementptr inbounds [100 x i32], [100 x i32]* %14, i64 0, i64 %46
  %48 = load i32, i32* %47, align 4
  %49 = load i32, i32* %7, align 4
  %50 = sext i32 %49 to i64
  %51 = getelementptr inbounds [100 x i32], [100 x i32]* %15, i64 0, i64 %50
  store i32 %48, i32* %51, align 4
  %52 = load i32, i32* %7, align 4
  %53 = sext i32 %52 to i64
  %54 = getelementptr inbounds [100 x [10 x i8]], [100 x [10 x i8]]* %12, i64 0, i64 %53
  %55 = getelementptr inbounds [10 x i8], [10 x i8]* %54, i64 0, i64 0
  %56 = load i32, i32* %8, align 4
  %57 = sext i32 %56 to i64
  %58 = getelementptr inbounds [100 x [10 x i8]], [100 x [10 x i8]]* %11, i64 0, i64 %57
  %59 = getelementptr inbounds [10 x i8], [10 x i8]* %58, i64 0, i64 0
  %60 = call i8* @strcpy(i8* %55, i8* %59) #3
  %61 = load i32, i32* %7, align 4
  %62 = add nsw i32 %61, 1
  store i32 %62, i32* %7, align 4
  %63 = load i32, i32* %7, align 4
  store i32 %63, i32* %9, align 4
  br label %64

64:                                               ; preds = %44, %38
  br label %65

65:                                               ; preds = %64
  %66 = load i32, i32* %8, align 4
  %67 = add nsw i32 %66, 1
  store i32 %67, i32* %8, align 4
  br label %34

68:                                               ; preds = %34
  store i32 1, i32* %8, align 4
  br label %69

69:                                               ; preds = %137, %68
  %70 = load i32, i32* %8, align 4
  %71 = load i32, i32* %9, align 4
  %72 = icmp slt i32 %70, %71
  br i1 %72, label %73, label %140

73:                                               ; preds = %69
  store i32 0, i32* %7, align 4
  br label %74

74:                                               ; preds = %133, %73
  %75 = load i32, i32* %7, align 4
  %76 = load i32, i32* %9, align 4
  %77 = load i32, i32* %8, align 4
  %78 = sub nsw i32 %76, %77
  %79 = icmp slt i32 %75, %78
  br i1 %79, label %80, label %136

80:                                               ; preds = %74
  %81 = load i32, i32* %7, align 4
  %82 = sext i32 %81 to i64
  %83 = getelementptr inbounds [100 x i32], [100 x i32]* %15, i64 0, i64 %82
  %84 = load i32, i32* %83, align 4
  %85 = load i32, i32* %7, align 4
  %86 = add nsw i32 %85, 1
  %87 = sext i32 %86 to i64
  %88 = getelementptr inbounds [100 x i32], [100 x i32]* %15, i64 0, i64 %87
  %89 = load i32, i32* %88, align 4
  %90 = icmp slt i32 %84, %89
  br i1 %90, label %91, label %132

91:                                               ; preds = %80
  %92 = load i32, i32* %7, align 4
  %93 = add nsw i32 %92, 1
  %94 = sext i32 %93 to i64
  %95 = getelementptr inbounds [100 x i32], [100 x i32]* %15, i64 0, i64 %94
  %96 = load i32, i32* %95, align 4
  store i32 %96, i32* %10, align 4
  %97 = load i32, i32* %7, align 4
  %98 = sext i32 %97 to i64
  %99 = getelementptr inbounds [100 x i32], [100 x i32]* %15, i64 0, i64 %98
  %100 = load i32, i32* %99, align 4
  %101 = load i32, i32* %7, align 4
  %102 = add nsw i32 %101, 1
  %103 = sext i32 %102 to i64
  %104 = getelementptr inbounds [100 x i32], [100 x i32]* %15, i64 0, i64 %103
  store i32 %100, i32* %104, align 4
  %105 = load i32, i32* %10, align 4
  %106 = load i32, i32* %7, align 4
  %107 = sext i32 %106 to i64
  %108 = getelementptr inbounds [100 x i32], [100 x i32]* %15, i64 0, i64 %107
  store i32 %105, i32* %108, align 4
  %109 = getelementptr inbounds [10 x i8], [10 x i8]* %13, i64 0, i64 0
  %110 = load i32, i32* %7, align 4
  %111 = add nsw i32 %110, 1
  %112 = sext i32 %111 to i64
  %113 = getelementptr inbounds [100 x [10 x i8]], [100 x [10 x i8]]* %12, i64 0, i64 %112
  %114 = getelementptr inbounds [10 x i8], [10 x i8]* %113, i64 0, i64 0
  %115 = call i8* @strcpy(i8* %109, i8* %114) #3
  %116 = load i32, i32* %7, align 4
  %117 = add nsw i32 %116, 1
  %118 = sext i32 %117 to i64
  %119 = getelementptr inbounds [100 x [10 x i8]], [100 x [10 x i8]]* %12, i64 0, i64 %118
  %120 = getelementptr inbounds [10 x i8], [10 x i8]* %119, i64 0, i64 0
  %121 = load i32, i32* %7, align 4
  %122 = sext i32 %121 to i64
  %123 = getelementptr inbounds [100 x [10 x i8]], [100 x [10 x i8]]* %12, i64 0, i64 %122
  %124 = getelementptr inbounds [10 x i8], [10 x i8]* %123, i64 0, i64 0
  %125 = call i8* @strcpy(i8* %120, i8* %124) #3
  %126 = load i32, i32* %7, align 4
  %127 = sext i32 %126 to i64
  %128 = getelementptr inbounds [100 x [10 x i8]], [100 x [10 x i8]]* %12, i64 0, i64 %127
  %129 = getelementptr inbounds [10 x i8], [10 x i8]* %128, i64 0, i64 0
  %130 = getelementptr inbounds [10 x i8], [10 x i8]* %13, i64 0, i64 0
  %131 = call i8* @strcpy(i8* %129, i8* %130) #3
  br label %132

132:                                              ; preds = %91, %80
  br label %133

133:                                              ; preds = %132
  %134 = load i32, i32* %7, align 4
  %135 = add nsw i32 %134, 1
  store i32 %135, i32* %7, align 4
  br label %74

136:                                              ; preds = %74
  br label %137

137:                                              ; preds = %136
  %138 = load i32, i32* %8, align 4
  %139 = add nsw i32 %138, 1
  store i32 %139, i32* %8, align 4
  br label %69

140:                                              ; preds = %69
  store i32 0, i32* %8, align 4
  br label %141

141:                                              ; preds = %171, %140
  %142 = load i32, i32* %8, align 4
  %143 = load i32, i32* %6, align 4
  %144 = icmp slt i32 %142, %143
  br i1 %144, label %145, label %174

145:                                              ; preds = %141
  %146 = load i32, i32* %8, align 4
  %147 = sext i32 %146 to i64
  %148 = getelementptr inbounds [100 x i32], [100 x i32]* %14, i64 0, i64 %147
  %149 = load i32, i32* %148, align 4
  %150 = icmp slt i32 %149, 60
  br i1 %150, label %151, label %170

151:                                              ; preds = %145
  %152 = load i32, i32* %8, align 4
  %153 = sext i32 %152 to i64
  %154 = getelementptr inbounds [100 x i32], [100 x i32]* %14, i64 0, i64 %153
  %155 = load i32, i32* %154, align 4
  %156 = load i32, i32* %9, align 4
  %157 = sext i32 %156 to i64
  %158 = getelementptr inbounds [100 x i32], [100 x i32]* %15, i64 0, i64 %157
  store i32 %155, i32* %158, align 4
  %159 = load i32, i32* %9, align 4
  %160 = sext i32 %159 to i64
  %161 = getelementptr inbounds [100 x [10 x i8]], [100 x [10 x i8]]* %12, i64 0, i64 %160
  %162 = getelementptr inbounds [10 x i8], [10 x i8]* %161, i64 0, i64 0
  %163 = load i32, i32* %8, align 4
  %164 = sext i32 %163 to i64
  %165 = getelementptr inbounds [100 x [10 x i8]], [100 x [10 x i8]]* %11, i64 0, i64 %164
  %166 = getelementptr inbounds [10 x i8], [10 x i8]* %165, i64 0, i64 0
  %167 = call i8* @strcpy(i8* %162, i8* %166) #3
  %168 = load i32, i32* %9, align 4
  %169 = add nsw i32 %168, 1
  store i32 %169, i32* %9, align 4
  br label %170

170:                                              ; preds = %151, %145
  br label %171

171:                                              ; preds = %170
  %172 = load i32, i32* %8, align 4
  %173 = add nsw i32 %172, 1
  store i32 %173, i32* %8, align 4
  br label %141

174:                                              ; preds = %141
  store i32 0, i32* %7, align 4
  br label %175

175:                                              ; preds = %185, %174
  %176 = load i32, i32* %7, align 4
  %177 = load i32, i32* %6, align 4
  %178 = icmp slt i32 %176, %177
  br i1 %178, label %179, label %188

179:                                              ; preds = %175
  %180 = load i32, i32* %7, align 4
  %181 = sext i32 %180 to i64
  %182 = getelementptr inbounds [100 x [10 x i8]], [100 x [10 x i8]]* %12, i64 0, i64 %181
  %183 = getelementptr inbounds [10 x i8], [10 x i8]* %182, i64 0, i64 0
  %184 = call i32 (i8*, ...) @printf(i8* getelementptr inbounds ([4 x i8], [4 x i8]* @.str.2, i64 0, i64 0), i8* %183)
  br label %185

185:                                              ; preds = %179
  %186 = load i32, i32* %7, align 4
  %187 = add nsw i32 %186, 1
  store i32 %187, i32* %7, align 4
  br label %175

188:                                              ; preds = %175
  ret i32 0
}

declare dso_local i32 @__isoc99_scanf(i8*, ...) #1

; Function Attrs: nounwind
declare dso_local i8* @strcpy(i8*, i8*) #2

declare dso_local i32 @printf(i8*, ...) #1


!llvm.module.flags = !{!0}
!llvm.ident = !{!1}

!0 = !{i32 1, !"wchar_size", i32 4}
!1 = !{!"clang version 10.0.0-4ubuntu1 "}
